target datalayout = "e-m:e-p270:32:32-p271:32:32-p272:64:64-i64:64-i128:128-f80:128-n8:16:32:64-S128"
target triple = "x86_64-unknown-linux-gnu"

%struct.PropertyInfo = type { ptr, ptr, ptr, i8, ptr, ptr, ptr, ptr, ptr, ptr }
%struct.Property = type { ptr, ptr, i64, i8, i64, i8, %union.anon, i32, ptr, i32, ptr }
%union.anon = type { i64 }
%struct.ErrorPropagator = type { ptr, ptr }
%struct.ArrayElementList = type { ptr, ptr }

@.str = private unnamed_addr constant [34 x i8] c"../qemu/hw/core/qdev-properties.c\00", align 1
@error_fatal = external global ptr, align 8
@.str.32 = private unnamed_addr constant [3 x i8] c"ok\00", align 1
@__PRETTY_FUNCTION__.get_prop_array = private unnamed_addr constant [73 x i8] c"void get_prop_array(Object *, Visitor *, const char *, void *, Error **)\00", align 1

; Function Attrs: nounwind sspstrong uwtable
define internal void @error_propagator_cleanup(ptr noundef %prop) #0 {
entry:
  %prop.addr = alloca ptr, align 8
  store ptr %prop, ptr %prop.addr, align 8
  %0 = load ptr, ptr %prop.addr, align 8
  %errp = getelementptr inbounds %struct.ErrorPropagator, ptr %0, i32 0, i32 1
  %1 = load ptr, ptr %errp, align 8
  %2 = load ptr, ptr %prop.addr, align 8
  %local_err = getelementptr inbounds %struct.ErrorPropagator, ptr %2, i32 0, i32 0
  %3 = load ptr, ptr %local_err, align 8
  call void @error_propagate(ptr noundef %1, ptr noundef %3)
  ret void
}

; Function Attrs: nounwind sspstrong uwtable
define internal void @glib_auto_cleanup_ErrorPropagator(ptr noundef %_ptr) #0 {
entry:
  %_ptr.addr = alloca ptr, align 8
  store ptr %_ptr, ptr %_ptr.addr, align 8
  %0 = load ptr, ptr %_ptr.addr, align 8
  call void @error_propagator_cleanup(ptr noundef %0)
  ret void
}

; Function Attrs: nounwind sspstrong uwtable
define internal void @array_elem_prop(ptr noalias sret(%struct.Property) align 8 %agg.result, ptr noundef %obj, ptr noundef %parent_prop, ptr noundef %name, ptr noundef %elem) #0 {
entry:
  %obj.addr = alloca ptr, align 8
  %parent_prop.addr = alloca ptr, align 8
  %name.addr = alloca ptr, align 8
  %elem.addr = alloca ptr, align 8
  store ptr %obj, ptr %obj.addr, align 8
  store ptr %parent_prop, ptr %parent_prop.addr, align 8
  store ptr %name, ptr %name.addr, align 8
  store ptr %elem, ptr %elem.addr, align 8
  %name1 = getelementptr inbounds %struct.Property, ptr %agg.result, i32 0, i32 0
  %0 = load ptr, ptr %name.addr, align 8
  store ptr %0, ptr %name1, align 8
  %info = getelementptr inbounds %struct.Property, ptr %agg.result, i32 0, i32 1
  %1 = load ptr, ptr %parent_prop.addr, align 8
  %arrayinfo = getelementptr inbounds %struct.Property, ptr %1, i32 0, i32 8
  %2 = load ptr, ptr %arrayinfo, align 8
  store ptr %2, ptr %info, align 8
  %offset = getelementptr inbounds %struct.Property, ptr %agg.result, i32 0, i32 2
  %3 = load ptr, ptr %elem.addr, align 8
  %4 = ptrtoint ptr %3 to i64
  %5 = load ptr, ptr %obj.addr, align 8
  %6 = ptrtoint ptr %5 to i64
  %sub = sub i64 %4, %6
  store i64 %sub, ptr %offset, align 8
  %bitnr = getelementptr inbounds %struct.Property, ptr %agg.result, i32 0, i32 3
  store i8 0, ptr %bitnr, align 8
  %bitmask = getelementptr inbounds %struct.Property, ptr %agg.result, i32 0, i32 4
  store i64 0, ptr %bitmask, align 8
  %set_default = getelementptr inbounds %struct.Property, ptr %agg.result, i32 0, i32 5
  store i8 0, ptr %set_default, align 8
  %defval = getelementptr inbounds %struct.Property, ptr %agg.result, i32 0, i32 6
  call void @llvm.memset.p0.i64(ptr align 8 %defval, i8 0, i64 8, i1 false)
  %arrayoffset = getelementptr inbounds %struct.Property, ptr %agg.result, i32 0, i32 7
  store i32 0, ptr %arrayoffset, align 8
  %arrayinfo2 = getelementptr inbounds %struct.Property, ptr %agg.result, i32 0, i32 8
  store ptr null, ptr %arrayinfo2, align 8
  %arrayfieldsize = getelementptr inbounds %struct.Property, ptr %agg.result, i32 0, i32 9
  store i32 0, ptr %arrayfieldsize, align 8
  %link_type = getelementptr inbounds %struct.Property, ptr %agg.result, i32 0, i32 10
  store ptr null, ptr %link_type, align 8
  ret void
}

; Function Attrs: nounwind sspstrong uwtable
define dso_local ptr @object_field_prop_ptr(ptr noundef %obj, ptr noundef %prop) #0 {
entry:
  %obj.addr = alloca ptr, align 8
  %prop.addr = alloca ptr, align 8
  %ptr = alloca ptr, align 8
  store ptr %obj, ptr %obj.addr, align 8
  store ptr %prop, ptr %prop.addr, align 8
  %0 = load ptr, ptr %obj.addr, align 8
  store ptr %0, ptr %ptr, align 8
  %1 = load ptr, ptr %prop.addr, align 8
  %offset = getelementptr inbounds %struct.Property, ptr %1, i32 0, i32 2
  %2 = load i64, ptr %offset, align 8
  %3 = load ptr, ptr %ptr, align 8
  %add.ptr = getelementptr i8, ptr %3, i64 %2
  store ptr %add.ptr, ptr %ptr, align 8
  %4 = load ptr, ptr %ptr, align 8
  ret ptr %4
}

; Function Attrs: nounwind sspstrong uwtable
define internal void @get_prop_array(ptr noundef %obj, ptr noundef %v, ptr noundef %name, ptr noundef %opaque, ptr noundef %errp) #0 {
entry:
  %obj.addr = alloca ptr, align 8
  %v.addr = alloca ptr, align 8
  %name.addr = alloca ptr, align 8
  %opaque.addr = alloca ptr, align 8
  %errp.addr = alloca ptr, align 8
  %_auto_errp_prop = alloca %struct.ErrorPropagator, align 8
  %prop = alloca ptr, align 8
  %alenptr = alloca ptr, align 8
  %arrayptr = alloca ptr, align 8
  %elemptr = alloca ptr, align 8
  %list = alloca ptr, align 8
  %elem = alloca ptr, align 8
  %tail = alloca ptr, align 8
  %size = alloca i64, align 8
  %i = alloca i32, align 4
  %ok = alloca i8, align 1
  %cleanup.dest.slot = alloca i32, align 4
  %elem_prop = alloca %struct.Property, align 8
  store ptr %obj, ptr %obj.addr, align 8
  store ptr %v, ptr %v.addr, align 8
  store ptr %name, ptr %name.addr, align 8
  store ptr %opaque, ptr %opaque.addr, align 8
  store ptr %errp, ptr %errp.addr, align 8
  %local_err = getelementptr inbounds %struct.ErrorPropagator, ptr %_auto_errp_prop, i32 0, i32 0
  store ptr null, ptr %local_err, align 8
  %errp1 = getelementptr inbounds %struct.ErrorPropagator, ptr %_auto_errp_prop, i32 0, i32 1
  %0 = load ptr, ptr %errp.addr, align 8
  store ptr %0, ptr %errp1, align 8
  br label %do.body

do.body:                                          ; preds = %entry
  %1 = load ptr, ptr %errp.addr, align 8
  %tobool = icmp ne ptr %1, null
  br i1 %tobool, label %lor.lhs.false, label %if.then

lor.lhs.false:                                    ; preds = %do.body
  %2 = load ptr, ptr %errp.addr, align 8
  %cmp = icmp eq ptr %2, @error_fatal
  br i1 %cmp, label %if.then, label %if.end

if.then:                                          ; preds = %lor.lhs.false, %do.body
  %local_err2 = getelementptr inbounds %struct.ErrorPropagator, ptr %_auto_errp_prop, i32 0, i32 0
  store ptr %local_err2, ptr %errp.addr, align 8
  br label %if.end

if.end:                                           ; preds = %if.then, %lor.lhs.false
  br label %do.cond

do.cond:                                          ; preds = %if.end
  br label %do.end

do.end:                                           ; preds = %do.cond
  %3 = load ptr, ptr %opaque.addr, align 8
  store ptr %3, ptr %prop, align 8
  %4 = load ptr, ptr %obj.addr, align 8
  %5 = load ptr, ptr %prop, align 8
  %call = call ptr @object_field_prop_ptr(ptr noundef %4, ptr noundef %5)
  store ptr %call, ptr %alenptr, align 8
  %6 = load ptr, ptr %obj.addr, align 8
  %7 = load ptr, ptr %prop, align 8
  %arrayoffset = getelementptr inbounds %struct.Property, ptr %7, i32 0, i32 7
  %8 = load i32, ptr %arrayoffset, align 8
  %idx.ext = sext i32 %8 to i64
  %add.ptr = getelementptr i8, ptr %6, i64 %idx.ext
  store ptr %add.ptr, ptr %arrayptr, align 8
  %9 = load ptr, ptr %arrayptr, align 8
  %10 = load ptr, ptr %9, align 8
  store ptr %10, ptr %elemptr, align 8
  store ptr null, ptr %list, align 8
  store ptr %list, ptr %tail, align 8
  store i64 16, ptr %size, align 8
  store i32 0, ptr %i, align 4
  br label %for.cond

for.cond:                                         ; preds = %for.inc, %do.end
  %11 = load i32, ptr %i, align 4
  %12 = load ptr, ptr %alenptr, align 8
  %13 = load i32, ptr %12, align 4
  %cmp3 = icmp ult i32 %11, %13
  br i1 %cmp3, label %for.body, label %for.end

for.body:                                         ; preds = %for.cond
  %call4 = call noalias ptr @g_malloc0_n(i64 noundef 1, i64 noundef 16) #8
  store ptr %call4, ptr %elem, align 8
  %14 = load ptr, ptr %elemptr, align 8
  %15 = load ptr, ptr %elem, align 8
  %value = getelementptr inbounds %struct.ArrayElementList, ptr %15, i32 0, i32 1
  store ptr %14, ptr %value, align 8
  %16 = load ptr, ptr %prop, align 8
  %arrayfieldsize = getelementptr inbounds %struct.Property, ptr %16, i32 0, i32 9
  %17 = load i32, ptr %arrayfieldsize, align 8
  %18 = load ptr, ptr %elemptr, align 8
  %idx.ext5 = sext i32 %17 to i64
  %add.ptr6 = getelementptr i8, ptr %18, i64 %idx.ext5
  store ptr %add.ptr6, ptr %elemptr, align 8
  %19 = load ptr, ptr %elem, align 8
  %20 = load ptr, ptr %tail, align 8
  store ptr %19, ptr %20, align 8
  %21 = load ptr, ptr %elem, align 8
  %next = getelementptr inbounds %struct.ArrayElementList, ptr %21, i32 0, i32 0
  store ptr %next, ptr %tail, align 8
  br label %for.inc

for.inc:                                          ; preds = %for.body
  %22 = load i32, ptr %i, align 4
  %inc = add i32 %22, 1
  store i32 %inc, ptr %i, align 4
  br label %for.cond, !llvm.loop !5

for.end:                                          ; preds = %for.cond
  %23 = load ptr, ptr %v.addr, align 8
  %24 = load ptr, ptr %name.addr, align 8
  %25 = load ptr, ptr %errp.addr, align 8
  %call7 = call zeroext i1 @visit_start_list(ptr noundef %23, ptr noundef %24, ptr noundef %list, i64 noundef 16, ptr noundef %25)
  br i1 %call7, label %if.end9, label %if.then8

if.then8:                                         ; preds = %for.end
  store i32 1, ptr %cleanup.dest.slot, align 4
  br label %cleanup

if.end9:                                          ; preds = %for.end
  %26 = load ptr, ptr %list, align 8
  store ptr %26, ptr %elem, align 8
  br label %while.cond

while.cond:                                       ; preds = %if.end14, %if.end9
  %27 = load ptr, ptr %elem, align 8
  %tobool10 = icmp ne ptr %27, null
  br i1 %tobool10, label %while.body, label %while.end

while.body:                                       ; preds = %while.cond
  %28 = load ptr, ptr %obj.addr, align 8
  %29 = load ptr, ptr %prop, align 8
  %30 = load ptr, ptr %name.addr, align 8
  %31 = load ptr, ptr %elem, align 8
  %value11 = getelementptr inbounds %struct.ArrayElementList, ptr %31, i32 0, i32 1
  %32 = load ptr, ptr %value11, align 8
  call void @array_elem_prop(ptr sret(%struct.Property) align 8 %elem_prop, ptr noundef %28, ptr noundef %29, ptr noundef %30, ptr noundef %32)
  %33 = load ptr, ptr %prop, align 8
  %arrayinfo = getelementptr inbounds %struct.Property, ptr %33, i32 0, i32 8
  %34 = load ptr, ptr %arrayinfo, align 8
  %get = getelementptr inbounds %struct.PropertyInfo, ptr %34, i32 0, i32 7
  %35 = load ptr, ptr %get, align 8
  %36 = load ptr, ptr %obj.addr, align 8
  %37 = load ptr, ptr %v.addr, align 8
  %38 = load ptr, ptr %errp.addr, align 8
  call void %35(ptr noundef %36, ptr noundef %37, ptr noundef null, ptr noundef %elem_prop, ptr noundef %38)
  %39 = load ptr, ptr %errp.addr, align 8
  %40 = load ptr, ptr %39, align 8
  %tobool12 = icmp ne ptr %40, null
  br i1 %tobool12, label %if.then13, label %if.end14

if.then13:                                        ; preds = %while.body
  br label %out_obj

if.end14:                                         ; preds = %while.body
  %41 = load ptr, ptr %v.addr, align 8
  %42 = load ptr, ptr %elem, align 8
  %call15 = call ptr @visit_next_list(ptr noundef %41, ptr noundef %42, i64 noundef 16)
  store ptr %call15, ptr %elem, align 8
  br label %while.cond, !llvm.loop !7

while.end:                                        ; preds = %while.cond
  %43 = load ptr, ptr %v.addr, align 8
  %44 = load ptr, ptr %errp.addr, align 8
  %call16 = call zeroext i1 @visit_check_list(ptr noundef %43, ptr noundef %44)
  %frombool = zext i1 %call16 to i8
  store i8 %frombool, ptr %ok, align 1
  %45 = load i8, ptr %ok, align 1
  %tobool17 = trunc i8 %45 to i1
  br i1 %tobool17, label %if.then18, label %if.else

if.then18:                                        ; preds = %while.end
  br label %if.end19

if.else:                                          ; preds = %while.end
  call void @__assert_fail(ptr noundef @.str.32, ptr noundef @.str, i32 noundef 726, ptr noundef @__PRETTY_FUNCTION__.get_prop_array) #9
  unreachable

if.end19:                                         ; preds = %if.then18
  br label %out_obj

out_obj:                                          ; preds = %if.end19, %if.then13
  %46 = load ptr, ptr %v.addr, align 8
  call void @visit_end_list(ptr noundef %46, ptr noundef %list)
  br label %while.cond20

while.cond20:                                     ; preds = %while.body22, %out_obj
  %47 = load ptr, ptr %list, align 8
  %tobool21 = icmp ne ptr %47, null
  br i1 %tobool21, label %while.body22, label %while.end24

while.body22:                                     ; preds = %while.cond20
  %48 = load ptr, ptr %list, align 8
  store ptr %48, ptr %elem, align 8
  %49 = load ptr, ptr %elem, align 8
  %next23 = getelementptr inbounds %struct.ArrayElementList, ptr %49, i32 0, i32 0
  %50 = load ptr, ptr %next23, align 8
  store ptr %50, ptr %list, align 8
  %51 = load ptr, ptr %elem, align 8
  call void @g_free(ptr noundef %51)
  br label %while.cond20, !llvm.loop !8

while.end24:                                      ; preds = %while.cond20
  store i32 0, ptr %cleanup.dest.slot, align 4
  br label %cleanup

cleanup:                                          ; preds = %while.end24, %if.then8
  call void @glib_auto_cleanup_ErrorPropagator(ptr noundef %_auto_errp_prop)
  %cleanup.dest = load i32, ptr %cleanup.dest.slot, align 4
  switch i32 %cleanup.dest, label %unreachable [
    i32 0, label %cleanup.cont
    i32 1, label %cleanup.cont
  ]

cleanup.cont:                                     ; preds = %cleanup, %cleanup
  ret void

unreachable:                                      ; preds = %cleanup
  unreachable
}