; Function Attrs: nounwind sspstrong uwtable
define internal void @get_prop_array(ptr noundef %obj, ptr noundef %v, ptr noundef %name, ptr noundef readonly captures(none) %opaque, ptr noundef %errp) #0 {
entry:
  %_auto_errp_prop = alloca %struct.ErrorPropagator, align 8
  %list = alloca ptr, align 8
  %elem_prop = alloca %struct.Property, align 8
  store ptr null, ptr %_auto_errp_prop, align 8
  %errp1 = getelementptr inbounds nuw i8, ptr %_auto_errp_prop, i64 8
  store ptr %errp, ptr %errp1, align 8
  %tobool = icmp eq ptr %errp, null
  %cmp = icmp eq ptr %errp, @error_fatal
  %or.cond = or i1 %tobool, %cmp
  %spec.select = select i1 %or.cond, ptr %_auto_errp_prop, ptr %errp
  %offset.i = getelementptr inbounds nuw i8, ptr %opaque, i64 16
  %0 = load i64, ptr %offset.i, align 8
  %add.ptr.i = getelementptr i8, ptr %obj, i64 %0
  %arrayoffset = getelementptr inbounds nuw i8, ptr %opaque, i64 56
  %1 = load i32, ptr %arrayoffset, align 8
  %idx.ext = sext i32 %1 to i64
  %add.ptr = getelementptr i8, ptr %obj, i64 %idx.ext
  %2 = load ptr, ptr %add.ptr, align 8
  store ptr null, ptr %list, align 8
  %3 = load i32, ptr %add.ptr.i, align 4
  %cmp330.not = icmp eq i32 %3, 0
  br i1 %cmp330.not, label %for.end, label %for.body.lr.ph

for.body.lr.ph:                                   ; preds = %entry
  %arrayfieldsize = getelementptr inbounds nuw i8, ptr %opaque, i64 72
  br label %for.body

for.body:                                         ; preds = %for.body.lr.ph, %for.body
  %i.033 = phi i32 [ 0, %for.body.lr.ph ], [ %inc, %for.body ]
  %elemptr.032 = phi ptr [ %2, %for.body.lr.ph ], [ %add.ptr6, %for.body ]
  %tail.031 = phi ptr [ %list, %for.body.lr.ph ], [ %call4, %for.body ]
  %call4 = tail call noalias dereferenceable_or_null(16) ptr @g_malloc0_n(i64 noundef 1, i64 noundef 16) #11
  %value = getelementptr inbounds nuw i8, ptr %call4, i64 8
  store ptr %elemptr.032, ptr %value, align 8
  %4 = load i32, ptr %arrayfieldsize, align 8
  %idx.ext5 = sext i32 %4 to i64
  %add.ptr6 = getelementptr i8, ptr %elemptr.032, i64 %idx.ext5
  store ptr %call4, ptr %tail.031, align 8
  %inc = add nuw i32 %i.033, 1
  %5 = load i32, ptr %add.ptr.i, align 4
  %cmp3 = icmp ult i32 %inc, %5
  br i1 %cmp3, label %for.body, label %for.end, !llvm.loop !5

for.end:                                          ; preds = %for.body, %entry
  %call7 = call zeroext i1 @visit_start_list(ptr noundef %v, ptr noundef %name, ptr noundef nonnull %list, i64 noundef 16, ptr noundef %spec.select) #9
  br i1 %call7, label %if.end9, label %cleanup

if.end9:                                          ; preds = %for.end
  %6 = load ptr, ptr %list, align 8
  %tobool10.not34 = icmp eq ptr %6, null
  br i1 %tobool10.not34, label %while.end, label %while.body.lr.ph

while.body.lr.ph:                                 ; preds = %if.end9
  %7 = getelementptr i8, ptr %opaque, i64 64
  %info.i = getelementptr inbounds nuw i8, ptr %elem_prop, i64 8
  %offset.i29 = getelementptr inbounds nuw i8, ptr %elem_prop, i64 16
  %8 = ptrtoint ptr %obj to i64
  %bitnr.i = getelementptr inbounds nuw i8, ptr %elem_prop, i64 24
  %bitmask.i = getelementptr inbounds nuw i8, ptr %elem_prop, i64 32
  %set_default.i = getelementptr inbounds nuw i8, ptr %elem_prop, i64 40
  %defval.i = getelementptr inbounds nuw i8, ptr %elem_prop, i64 48
  %arrayoffset.i = getelementptr inbounds nuw i8, ptr %elem_prop, i64 56
  %arrayinfo2.i = getelementptr inbounds nuw i8, ptr %elem_prop, i64 64
  %arrayfieldsize.i = getelementptr inbounds nuw i8, ptr %elem_prop, i64 72
  %link_type.i = getelementptr inbounds nuw i8, ptr %elem_prop, i64 80
  br label %while.body

while.body:                                       ; preds = %while.body.lr.ph, %if.end14
  %elem.035 = phi ptr [ %6, %while.body.lr.ph ], [ %call15, %if.end14 ]
  %value11 = getelementptr inbounds nuw i8, ptr %elem.035, i64 8
  %9 = load ptr, ptr %value11, align 8
  %opaque.val = load ptr, ptr %7, align 8
  store ptr %name, ptr %elem_prop, align 8, !alias.scope !7
  store ptr %opaque.val, ptr %info.i, align 8, !alias.scope !7
  %10 = ptrtoint ptr %9 to i64
  %sub.i = sub i64 %10, %8
  store i64 %sub.i, ptr %offset.i29, align 8, !alias.scope !7
  store i8 0, ptr %bitnr.i, align 8, !alias.scope !7
  store i64 0, ptr %bitmask.i, align 8, !alias.scope !7
  store i8 0, ptr %set_default.i, align 8, !alias.scope !7
  store i64 0, ptr %defval.i, align 8, !alias.scope !7
  store i32 0, ptr %arrayoffset.i, align 8, !alias.scope !7
  store ptr null, ptr %arrayinfo2.i, align 8, !alias.scope !7
  store i32 0, ptr %arrayfieldsize.i, align 8, !alias.scope !7
  store ptr null, ptr %link_type.i, align 8, !alias.scope !7
  %get = getelementptr inbounds nuw i8, ptr %opaque.val, i64 56
  %11 = load ptr, ptr %get, align 8
  call void %11(ptr noundef %obj, ptr noundef %v, ptr noundef null, ptr noundef nonnull %elem_prop, ptr noundef %spec.select) #9
  %12 = load ptr, ptr %spec.select, align 8
  %tobool12.not = icmp eq ptr %12, null
  br i1 %tobool12.not, label %if.end14, label %out_obj

if.end14:                                         ; preds = %while.body
  %call15 = call ptr @visit_next_list(ptr noundef %v, ptr noundef nonnull %elem.035, i64 noundef 16) #9
  %tobool10.not = icmp eq ptr %call15, null
  br i1 %tobool10.not, label %while.end, label %while.body, !llvm.loop !10

while.end:                                        ; preds = %if.end14, %if.end9
  %call16 = call zeroext i1 @visit_check_list(ptr noundef %v, ptr noundef %spec.select) #9
  br i1 %call16, label %out_obj, label %if.else

if.else:                                          ; preds = %while.end
  call void @__assert_fail(ptr noundef nonnull @.str.32, ptr noundef nonnull @.str, i32 noundef 726, ptr noundef nonnull @__PRETTY_FUNCTION__.get_prop_array) #10
  unreachable

out_obj:                                          ; preds = %while.body, %while.end
  call void @visit_end_list(ptr noundef %v, ptr noundef nonnull %list) #9
  %13 = load ptr, ptr %list, align 8
  %tobool21.not36 = icmp eq ptr %13, null
  br i1 %tobool21.not36, label %cleanup, label %while.body22

while.body22:                                     ; preds = %out_obj, %while.body22
  %14 = phi ptr [ %16, %while.body22 ], [ %13, %out_obj ]
  %15 = load ptr, ptr %14, align 8
  store ptr %15, ptr %list, align 8
  call void @g_free(ptr noundef nonnull %14) #9
  %16 = load ptr, ptr %list, align 8
  %tobool21.not = icmp eq ptr %16, null
  br i1 %tobool21.not, label %cleanup, label %while.body22, !llvm.loop !11

cleanup:                                          ; preds = %while.body22, %out_obj, %for.end
  %_auto_errp_prop.val = load ptr, ptr %_auto_errp_prop, align 8
  %_auto_errp_prop.val28 = load ptr, ptr %errp1, align 8
  call void @error_propagate(ptr noundef %_auto_errp_prop.val28, ptr noundef %_auto_errp_prop.val) #9
  ret void
}